target datalayout = "e-m:e-p270:32:32-p271:32:32-p272:64:64-i64:64-i128:128-f80:128-n8:16:32:64-S128"
target triple = "x86_64-pc-linux-gnu"

; Function Attrs: nounwind uwtable
define hidden zeroext i1 @SDL_AudioChannelMapsEqual(i32 noundef %0, ptr noundef %1, ptr noundef %2) #0 {
  %4 = alloca i1, align 1
  %5 = alloca i32, align 4
  %6 = alloca ptr, align 8
  %7 = alloca ptr, align 8
  store i32 %0, ptr %5, align 4
  store ptr %1, ptr %6, align 8
  store ptr %2, ptr %7, align 8
  %8 = load ptr, ptr %6, align 8
  %9 = load ptr, ptr %7, align 8
  %10 = icmp eq ptr %8, %9
  br i1 %10, label %11, label %12

11:                                               ; preds = %3
  store i1 true, ptr %4, align 1
  br label %36

12:                                               ; preds = %3
  %13 = load ptr, ptr %6, align 8
  %14 = icmp ne ptr %13, null
  %15 = zext i1 %14 to i32
  %16 = load ptr, ptr %7, align 8
  %17 = icmp ne ptr %16, null
  %18 = zext i1 %17 to i32
  %19 = icmp ne i32 %15, %18
  br i1 %19, label %20, label %21

20:                                               ; preds = %12
  store i1 false, ptr %4, align 1
  br label %36

21:                                               ; preds = %12
  %22 = load ptr, ptr %6, align 8
  %23 = icmp ne ptr %22, null
  br i1 %23, label %24, label %33

24:                                               ; preds = %21
  %25 = load ptr, ptr %6, align 8
  %26 = load ptr, ptr %7, align 8
  %27 = load i32, ptr %5, align 4
  %28 = sext i32 %27 to i64
  %29 = mul i64 4, %28
  %30 = call i32 @SDL_memcmp_REAL(ptr noundef %25, ptr noundef %26, i64 noundef %29)
  %31 = icmp ne i32 %30, 0
  br i1 %31, label %32, label %33

32:                                               ; preds = %24
  store i1 false, ptr %4, align 1
  br label %36

33:                                               ; preds = %24, %21
  br label %34

34:                                               ; preds = %33
  br label %35

35:                                               ; preds = %34
  store i1 true, ptr %4, align 1
  br label %36

36:                                               ; preds = %35, %32, %20, %11
  %37 = load i1, ptr %4, align 1
  ret i1 %37
}