; Function Attrs: nounwind uwtable
define hidden noundef zeroext i1 @SDL_AudioChannelMapsEqual(i32 noundef %0, ptr noundef %1, ptr noundef %2) local_unnamed_addr #0 {
  %4 = icmp eq ptr %1, %2
  br i1 %4, label %14, label %5

5:                                                ; preds = %3
  %6 = icmp ne ptr %1, null
  %7 = icmp eq ptr %2, null
  %.not = xor i1 %6, %7
  br i1 %.not, label %8, label %14

8:                                                ; preds = %5
  br i1 %6, label %9, label %13

9:                                                ; preds = %8
  %10 = sext i32 %0 to i64
  %11 = shl nsw i64 %10, 2
  %12 = tail call i32 @SDL_memcmp_REAL(ptr noundef nonnull %1, ptr noundef %2, i64 noundef %11) #14
  %.not10 = icmp eq i32 %12, 0
  br i1 %.not10, label %13, label %14

13:                                               ; preds = %9, %8
  br label %14

14:                                               ; preds = %9, %5, %3, %13
  %.0 = phi i1 [ true, %13 ], [ true, %3 ], [ false, %5 ], [ false, %9 ]
  ret i1 %.0
}